; ModuleID = '20/168.c'
source_filename = "20/168.c"
target datalayout = "e-m:e-p270:32:32-p271:32:32-p272:64:64-i64:64-f80:128-n8:16:32:64-S128"
target triple = "x86_64-pc-linux-gnu"

@.str = private unnamed_addr constant [6 x i8] c"%s %s\00", align 1
@.str.1 = private unnamed_addr constant [4 x i8] c"%s\0A\00", align 1

; Function Attrs: noinline nounwind uwtable
define dso_local i32 @main() #0 {
  %1 = alloca i32, align 4
  %2 = alloca [10 x [11 x i8]], align 16
  %3 = alloca [10 x [4 x i8]], align 16
  %4 = alloca [10 x [14 x i8]], align 16
  %5 = alloca i32, align 4
  %6 = alloca i32, align 4
  %7 = alloca i32, align 4
  %8 = alloca i32, align 4
  %9 = alloca i8, align 1
  %10 = alloca i8*, align 8
  store i32 0, i32* %1, align 4
  %11 = bitcast [10 x [14 x i8]]* %4 to i8*
  call void @llvm.memset.p0i8.i64(i8* align 16 %11, i8 0, i64 140, i1 false)
  store i32 0, i32* %5, align 4
  store i32 0, i32* %6, align 4
  br label %12

12:                                               ; preds = %23, %0
  %13 = load i32, i32* %6, align 4
  %14 = sext i32 %13 to i64
  %15 = getelementptr inbounds [10 x [11 x i8]], [10 x [11 x i8]]* %2, i64 0, i64 %14
  %16 = getelementptr inbounds [11 x i8], [11 x i8]* %15, i64 0, i64 0
  %17 = load i32, i32* %6, align 4
  %18 = sext i32 %17 to i64
  %19 = getelementptr inbounds [10 x [4 x i8]], [10 x [4 x i8]]* %3, i64 0, i64 %18
  %20 = getelementptr inbounds [4 x i8], [4 x i8]* %19, i64 0, i64 0
  %21 = call i32 (i8*, ...) @__isoc99_scanf(i8* getelementptr inbounds ([6 x i8], [6 x i8]* @.str, i64 0, i64 0), i8* %16, i8* %20)
  %22 = icmp ne i32 %21, -1
  br i1 %22, label %23, label %26

23:                                               ; preds = %12
  %24 = load i32, i32* %6, align 4
  %25 = add nsw i32 %24, 1
  store i32 %25, i32* %6, align 4
  br label %12

26:                                               ; preds = %12
  %27 = load i32, i32* %6, align 4
  store i32 %27, i32* %8, align 4
  store i32 0, i32* %6, align 4
  br label %28

28:                                               ; preds = %112, %26
  %29 = load i32, i32* %6, align 4
  %30 = load i32, i32* %8, align 4
  %31 = icmp slt i32 %29, %30
  br i1 %31, label %32, label %115

32:                                               ; preds = %28
  %33 = load i32, i32* %6, align 4
  %34 = sext i32 %33 to i64
  %35 = getelementptr inbounds [10 x [11 x i8]], [10 x [11 x i8]]* %2, i64 0, i64 %34
  %36 = getelementptr inbounds [11 x i8], [11 x i8]* %35, i64 0, i64 0
  %37 = load i8, i8* %36, align 1
  store i8 %37, i8* %9, align 1
  %38 = load i32, i32* %6, align 4
  %39 = sext i32 %38 to i64
  %40 = getelementptr inbounds [10 x [14 x i8]], [10 x [14 x i8]]* %4, i64 0, i64 %39
  %41 = getelementptr inbounds [14 x i8], [14 x i8]* %40, i64 0, i64 0
  store i8* %41, i8** %10, align 8
  store i32 0, i32* %7, align 4
  br label %42

42:                                               ; preds = %74, %32
  %43 = load i32, i32* %7, align 4
  %44 = sext i32 %43 to i64
  %45 = load i32, i32* %6, align 4
  %46 = sext i32 %45 to i64
  %47 = getelementptr inbounds [10 x [11 x i8]], [10 x [11 x i8]]* %2, i64 0, i64 %46
  %48 = getelementptr inbounds [11 x i8], [11 x i8]* %47, i64 0, i64 0
  %49 = call i64 @strlen(i8* %48) #5
  %50 = icmp ult i64 %44, %49
  br i1 %50, label %51, label %77

51:                                               ; preds = %42
  %52 = load i32, i32* %6, align 4
  %53 = sext i32 %52 to i64
  %54 = getelementptr inbounds [10 x [11 x i8]], [10 x [11 x i8]]* %2, i64 0, i64 %53
  %55 = load i32, i32* %7, align 4
  %56 = sext i32 %55 to i64
  %57 = getelementptr inbounds [11 x i8], [11 x i8]* %54, i64 0, i64 %56
  %58 = load i8, i8* %57, align 1
  %59 = sext i8 %58 to i32
  %60 = load i8, i8* %9, align 1
  %61 = sext i8 %60 to i32
  %62 = icmp sgt i32 %59, %61
  br i1 %62, label %63, label %73

63:                                               ; preds = %51
  %64 = load i32, i32* %6, align 4
  %65 = sext i32 %64 to i64
  %66 = getelementptr inbounds [10 x [11 x i8]], [10 x [11 x i8]]* %2, i64 0, i64 %65
  %67 = load i32, i32* %7, align 4
  %68 = sext i32 %67 to i64
  %69 = getelementptr inbounds [11 x i8], [11 x i8]* %66, i64 0, i64 %68
  %70 = load i8, i8* %69, align 1
  store i8 %70, i8* %9, align 1
  %71 = load i32, i32* %7, align 4
  %72 = add nsw i32 %71, 1
  store i32 %72, i32* %5, align 4
  br label %73

73:                                               ; preds = %63, %51
  br label %74

74:                                               ; preds = %73
  %75 = load i32, i32* %7, align 4
  %76 = add nsw i32 %75, 1
  store i32 %76, i32* %7, align 4
  br label %42

77:                                               ; preds = %42
  %78 = load i8*, i8** %10, align 8
  %79 = load i32, i32* %6, align 4
  %80 = sext i32 %79 to i64
  %81 = getelementptr inbounds [10 x [11 x i8]], [10 x [11 x i8]]* %2, i64 0, i64 %80
  %82 = getelementptr inbounds [11 x i8], [11 x i8]* %81, i64 0, i64 0
  %83 = load i32, i32* %5, align 4
  %84 = sext i32 %83 to i64
  %85 = call i8* @strncpy(i8* %78, i8* %82, i64 %84) #6
  %86 = load i8*, i8** %10, align 8
  %87 = load i32, i32* %6, align 4
  %88 = sext i32 %87 to i64
  %89 = getelementptr inbounds [10 x [4 x i8]], [10 x [4 x i8]]* %3, i64 0, i64 %88
  %90 = getelementptr inbounds [4 x i8], [4 x i8]* %89, i64 0, i64 0
  %91 = call i8* @strcat(i8* %86, i8* %90) #6
  %92 = load i8*, i8** %10, align 8
  %93 = load i32, i32* %6, align 4
  %94 = sext i32 %93 to i64
  %95 = getelementptr inbounds [10 x [14 x i8]], [10 x [14 x i8]]* %4, i64 0, i64 %94
  %96 = getelementptr inbounds [14 x i8], [14 x i8]* %95, i64 0, i64 0
  %97 = call i64 @strlen(i8* %96) #5
  %98 = getelementptr inbounds i8, i8* %92, i64 %97
  %99 = load i32, i32* %6, align 4
  %100 = sext i32 %99 to i64
  %101 = getelementptr inbounds [10 x [11 x i8]], [10 x [11 x i8]]* %2, i64 0, i64 %100
  %102 = getelementptr inbounds [11 x i8], [11 x i8]* %101, i64 0, i64 0
  %103 = load i32, i32* %5, align 4
  %104 = sext i32 %103 to i64
  %105 = getelementptr inbounds i8, i8* %102, i64 %104
  %106 = call i8* @strcat(i8* %98, i8* %105) #6
  %107 = load i32, i32* %6, align 4
  %108 = sext i32 %107 to i64
  %109 = getelementptr inbounds [10 x [14 x i8]], [10 x [14 x i8]]* %4, i64 0, i64 %108
  %110 = getelementptr inbounds [14 x i8], [14 x i8]* %109, i64 0, i64 0
  %111 = call i32 (i8*, ...) @printf(i8* getelementptr inbounds ([4 x i8], [4 x i8]* @.str.1, i64 0, i64 0), i8* %110)
  br label %112

112:                                              ; preds = %77
  %113 = load i32, i32* %6, align 4
  %114 = add nsw i32 %113, 1
  store i32 %114, i32* %6, align 4
  br label %28

115:                                              ; preds = %28
  ret i32 0
}

; Function Attrs: argmemonly nounwind willreturn
declare void @llvm.memset.p0i8.i64(i8* nocapture writeonly, i8, i64, i1 immarg) #1

declare dso_local i32 @__isoc99_scanf(i8*, ...) #2

; Function Attrs: nounwind readonly
declare dso_local i64 @strlen(i8*) #3

; Function Attrs: nounwind
declare dso_local i8* @strncpy(i8*, i8*, i64) #4

; Function Attrs: nounwind
declare dso_local i8* @strcat(i8*, i8*) #4

declare dso_local i32 @printf(i8*, ...) #2


!llvm.module.flags = !{!0}
!llvm.ident = !{!1}

!0 = !{i32 1, !"wchar_size", i32 4}
!1 = !{!"clang version 10.0.0-4ubuntu1 "}
